; ModuleID = '39/1780.c'
source_filename = "39/1780.c"
target datalayout = "e-m:e-p270:32:32-p271:32:32-p272:64:64-i64:64-f80:128-n8:16:32:64-S128"
target triple = "x86_64-pc-linux-gnu"

%struct.student = type { [20 x i8], i32 }

@.str = private unnamed_addr constant [3 x i8] c"%d\00", align 1
@.str.1 = private unnamed_addr constant [13 x i8] c"%s%d%d%s%s%d\00", align 1
@stu = common dso_local global [100 x %struct.student] zeroinitializer, align 16
@.str.2 = private unnamed_addr constant [10 x i8] c"%s\0A%d\0A%d\0A\00", align 1

; Function Attrs: noinline nounwind uwtable
define dso_local i32 @main() #0 {
  %1 = alloca i32, align 4
  %2 = alloca i32, align 4
  %3 = alloca i32, align 4
  %4 = alloca i32, align 4
  %5 = alloca i32, align 4
  %6 = alloca i32, align 4
  %7 = alloca i32, align 4
  %8 = alloca i32, align 4
  %9 = alloca i32, align 4
  %10 = alloca i32, align 4
  %11 = alloca [2 x i8], align 1
  %12 = alloca [2 x i8], align 1
  store i32 0, i32* %1, align 4
  store i32 0, i32* %5, align 4
  store i32 0, i32* %10, align 4
  %13 = call i32 (i8*, ...) @__isoc99_scanf(i8* getelementptr inbounds ([3 x i8], [3 x i8]* @.str, i64 0, i64 0), i32* %2)
  store i32 0, i32* %3, align 4
  br label %14

14:                                               ; preds = %115, %0
  %15 = load i32, i32* %3, align 4
  %16 = load i32, i32* %2, align 4
  %17 = icmp slt i32 %15, %16
  br i1 %17, label %18, label %118

18:                                               ; preds = %14
  %19 = load i32, i32* %3, align 4
  %20 = sext i32 %19 to i64
  %21 = getelementptr inbounds [100 x %struct.student], [100 x %struct.student]* @stu, i64 0, i64 %20
  %22 = getelementptr inbounds %struct.student, %struct.student* %21, i32 0, i32 0
  %23 = getelementptr inbounds [20 x i8], [20 x i8]* %22, i64 0, i64 0
  %24 = getelementptr inbounds [2 x i8], [2 x i8]* %11, i64 0, i64 0
  %25 = getelementptr inbounds [2 x i8], [2 x i8]* %12, i64 0, i64 0
  %26 = call i32 (i8*, ...) @__isoc99_scanf(i8* getelementptr inbounds ([13 x i8], [13 x i8]* @.str.1, i64 0, i64 0), i8* %23, i32* %6, i32* %7, i8* %24, i8* %25, i32* %8)
  %27 = load i32, i32* %6, align 4
  %28 = icmp sgt i32 %27, 80
  br i1 %28, label %29, label %39

29:                                               ; preds = %18
  %30 = load i32, i32* %8, align 4
  %31 = icmp sge i32 %30, 1
  br i1 %31, label %32, label %39

32:                                               ; preds = %29
  %33 = load i32, i32* %3, align 4
  %34 = sext i32 %33 to i64
  %35 = getelementptr inbounds [100 x %struct.student], [100 x %struct.student]* @stu, i64 0, i64 %34
  %36 = getelementptr inbounds %struct.student, %struct.student* %35, i32 0, i32 1
  %37 = load i32, i32* %36, align 4
  %38 = add nsw i32 %37, 8000
  store i32 %38, i32* %36, align 4
  br label %39

39:                                               ; preds = %32, %29, %18
  %40 = load i32, i32* %6, align 4
  %41 = icmp sgt i32 %40, 85
  br i1 %41, label %42, label %52

42:                                               ; preds = %39
  %43 = load i32, i32* %7, align 4
  %44 = icmp sgt i32 %43, 80
  br i1 %44, label %45, label %52

45:                                               ; preds = %42
  %46 = load i32, i32* %3, align 4
  %47 = sext i32 %46 to i64
  %48 = getelementptr inbounds [100 x %struct.student], [100 x %struct.student]* @stu, i64 0, i64 %47
  %49 = getelementptr inbounds %struct.student, %struct.student* %48, i32 0, i32 1
  %50 = load i32, i32* %49, align 4
  %51 = add nsw i32 %50, 4000
  store i32 %51, i32* %49, align 4
  br label %52

52:                                               ; preds = %45, %42, %39
  %53 = load i32, i32* %6, align 4
  %54 = icmp sgt i32 %53, 90
  br i1 %54, label %55, label %62

55:                                               ; preds = %52
  %56 = load i32, i32* %3, align 4
  %57 = sext i32 %56 to i64
  %58 = getelementptr inbounds [100 x %struct.student], [100 x %struct.student]* @stu, i64 0, i64 %57
  %59 = getelementptr inbounds %struct.student, %struct.student* %58, i32 0, i32 1
  %60 = load i32, i32* %59, align 4
  %61 = add nsw i32 %60, 2000
  store i32 %61, i32* %59, align 4
  br label %62

62:                                               ; preds = %55, %52
  %63 = load i32, i32* %6, align 4
  %64 = icmp sgt i32 %63, 85
  br i1 %64, label %65, label %77

65:                                               ; preds = %62
  %66 = getelementptr inbounds [2 x i8], [2 x i8]* %12, i64 0, i64 0
  %67 = load i8, i8* %66, align 1
  %68 = sext i8 %67 to i32
  %69 = icmp eq i32 %68, 89
  br i1 %69, label %70, label %77

70:                                               ; preds = %65
  %71 = load i32, i32* %3, align 4
  %72 = sext i32 %71 to i64
  %73 = getelementptr inbounds [100 x %struct.student], [100 x %struct.student]* @stu, i64 0, i64 %72
  %74 = getelementptr inbounds %struct.student, %struct.student* %73, i32 0, i32 1
  %75 = load i32, i32* %74, align 4
  %76 = add nsw i32 %75, 1000
  store i32 %76, i32* %74, align 4
  br label %77

77:                                               ; preds = %70, %65, %62
  %78 = load i32, i32* %7, align 4
  %79 = icmp sgt i32 %78, 80
  br i1 %79, label %80, label %92

80:                                               ; preds = %77
  %81 = getelementptr inbounds [2 x i8], [2 x i8]* %11, i64 0, i64 0
  %82 = load i8, i8* %81, align 1
  %83 = sext i8 %82 to i32
  %84 = icmp eq i32 %83, 89
  br i1 %84, label %85, label %92

85:                                               ; preds = %80
  %86 = load i32, i32* %3, align 4
  %87 = sext i32 %86 to i64
  %88 = getelementptr inbounds [100 x %struct.student], [100 x %struct.student]* @stu, i64 0, i64 %87
  %89 = getelementptr inbounds %struct.student, %struct.student* %88, i32 0, i32 1
  %90 = load i32, i32* %89, align 4
  %91 = add nsw i32 %90, 850
  store i32 %91, i32* %89, align 4
  br label %92

92:                                               ; preds = %85, %80, %77
  %93 = load i32, i32* %3, align 4
  %94 = sext i32 %93 to i64
  %95 = getelementptr inbounds [100 x %struct.student], [100 x %struct.student]* @stu, i64 0, i64 %94
  %96 = getelementptr inbounds %struct.student, %struct.student* %95, i32 0, i32 1
  %97 = load i32, i32* %96, align 4
  %98 = load i32, i32* %5, align 4
  %99 = add nsw i32 %98, %97
  store i32 %99, i32* %5, align 4
  %100 = load i32, i32* %10, align 4
  %101 = load i32, i32* %3, align 4
  %102 = sext i32 %101 to i64
  %103 = getelementptr inbounds [100 x %struct.student], [100 x %struct.student]* @stu, i64 0, i64 %102
  %104 = getelementptr inbounds %struct.student, %struct.student* %103, i32 0, i32 1
  %105 = load i32, i32* %104, align 4
  %106 = icmp slt i32 %100, %105
  br i1 %106, label %107, label %114

107:                                              ; preds = %92
  %108 = load i32, i32* %3, align 4
  %109 = sext i32 %108 to i64
  %110 = getelementptr inbounds [100 x %struct.student], [100 x %struct.student]* @stu, i64 0, i64 %109
  %111 = getelementptr inbounds %struct.student, %struct.student* %110, i32 0, i32 1
  %112 = load i32, i32* %111, align 4
  store i32 %112, i32* %10, align 4
  %113 = load i32, i32* %3, align 4
  store i32 %113, i32* %9, align 4
  br label %114

114:                                              ; preds = %107, %92
  br label %115

115:                                              ; preds = %114
  %116 = load i32, i32* %3, align 4
  %117 = add nsw i32 %116, 1
  store i32 %117, i32* %3, align 4
  br label %14

118:                                              ; preds = %14
  %119 = load i32, i32* %9, align 4
  %120 = sext i32 %119 to i64
  %121 = getelementptr inbounds [100 x %struct.student], [100 x %struct.student]* @stu, i64 0, i64 %120
  %122 = getelementptr inbounds %struct.student, %struct.student* %121, i32 0, i32 0
  %123 = getelementptr inbounds [20 x i8], [20 x i8]* %122, i64 0, i64 0
  %124 = load i32, i32* %10, align 4
  %125 = load i32, i32* %5, align 4
  %126 = call i32 (i8*, ...) @printf(i8* getelementptr inbounds ([10 x i8], [10 x i8]* @.str.2, i64 0, i64 0), i8* %123, i32 %124, i32 %125)
  %127 = load i32, i32* %1, align 4
  ret i32 %127
}

declare dso_local i32 @__isoc99_scanf(i8*, ...) #1

declare dso_local i32 @printf(i8*, ...) #1


!llvm.module.flags = !{!0}
!llvm.ident = !{!1}

!0 = !{i32 1, !"wchar_size", i32 4}
!1 = !{!"clang version 10.0.0-4ubuntu1 "}
